target datalayout = "e-m:e-p270:32:32-p271:32:32-p272:64:64-i64:64-i128:128-f80:128-n8:16:32:64-S128"
target triple = "x86_64-pc-linux-gnu"

%struct.zstream = type { i64, i64, i64, i64, %struct.z_stream_s, ptr }
%struct.z_stream_s = type { ptr, i32, i64, ptr, i32, i64, ptr, ptr, ptr, ptr, ptr, i32, i64, i64 }
%struct.gzfile = type { %struct.zstream, i64, i32, i32, i64, i64, i64, i64, i32, i32, i64, ptr, ptr, ptr, ptr, i64, i64 }
%struct.RString = type { %struct.RBasic, i64, %union.anon }
%struct.RBasic = type { i64, i64 }
%union.anon = type { %struct.anon }
%struct.anon = type { ptr, %union.anon.0 }
%union.anon.0 = type { i64 }
%struct.anon.1 = type { [1 x i8] }

@rb_eArgError = external global i64, align 8
@.str.192 = private unnamed_addr constant [26 x i8] c"negative length %ld given\00", align 1

; Function Attrs: inlinehint nounwind sspstrong willreturn memory(read) uwtable
define internal i64 @RB_FL_TEST_RAW(i64 noundef %0, i64 noundef %1) #6 {
  %3 = alloca i64, align 8
  %4 = alloca i64, align 8
  store i64 %0, ptr %3, align 8, !tbaa !6
  store i64 %1, ptr %4, align 8, !tbaa !6
  %5 = load i64, ptr %3, align 8, !tbaa !6
  %6 = inttoptr i64 %5 to ptr
  %7 = getelementptr inbounds nuw %struct.RBasic, ptr %6, i32 0, i32 0
  %8 = load i64, ptr %7, align 8, !tbaa !91
  %9 = load i64, ptr %4, align 8, !tbaa !6
  %10 = and i64 %8, %9
  ret i64 %10
}

; Function Attrs: inlinehint nounwind sspstrong willreturn memory(read) uwtable
define internal zeroext i1 @RB_FL_ANY_RAW(i64 noundef %0, i64 noundef %1) #6 {
  %3 = alloca i64, align 8
  %4 = alloca i64, align 8
  store i64 %0, ptr %3, align 8, !tbaa !6
  store i64 %1, ptr %4, align 8, !tbaa !6
  %5 = load i64, ptr %3, align 8, !tbaa !6
  %6 = load i64, ptr %4, align 8, !tbaa !6
  %7 = call i64 @RB_FL_TEST_RAW(i64 noundef %5, i64 noundef %6) #25
  %8 = icmp ne i64 %7, 0
  ret i1 %8
}

; Function Attrs: inlinehint nounwind sspstrong willreturn memory(read, argmem: readwrite) uwtable
define internal void @rbimpl_rstring_getmem(ptr dead_on_unwind noalias writable sret(%struct.RString) align 8 %0, i64 noundef %1) #9 {
  %3 = alloca i64, align 8
  store i64 %1, ptr %3, align 8, !tbaa !6
  %4 = load i64, ptr %3, align 8, !tbaa !6
  %5 = call zeroext i1 @RB_FL_ANY_RAW(i64 noundef %4, i64 noundef 8192) #25
  br i1 %5, label %6, label %9

6:                                                ; preds = %2
  %7 = load i64, ptr %3, align 8, !tbaa !6
  %8 = inttoptr i64 %7 to ptr
  call void @llvm.memcpy.p0.p0.i64(ptr align 8 %0, ptr align 8 %8, i64 40, i1 false), !tbaa.struct !92
  br label %20

9:                                                ; preds = %2
  %10 = load i64, ptr %3, align 8, !tbaa !6
  %11 = call i64 @RSTRING_LEN(i64 noundef %10) #25
  %12 = getelementptr inbounds nuw %struct.RString, ptr %0, i32 0, i32 1
  store i64 %11, ptr %12, align 8, !tbaa !88
  %13 = load i64, ptr %3, align 8, !tbaa !6
  %14 = inttoptr i64 %13 to ptr
  %15 = getelementptr inbounds nuw %struct.RString, ptr %14, i32 0, i32 2
  %16 = getelementptr inbounds nuw %struct.anon.1, ptr %15, i32 0, i32 0
  %17 = getelementptr inbounds [1 x i8], ptr %16, i64 0, i64 0
  %18 = getelementptr inbounds nuw %struct.RString, ptr %0, i32 0, i32 2
  %19 = getelementptr inbounds nuw %struct.anon, ptr %18, i32 0, i32 0
  store ptr %17, ptr %19, align 8, !tbaa !68
  br label %20

20:                                               ; preds = %9, %6
  ret void
}

; Function Attrs: nounwind sspstrong uwtable
define internal i64 @gzfile_fill(ptr noundef %0, i64 noundef %1, i64 noundef %2) #0 {
  %4 = alloca i64, align 8
  %5 = alloca ptr, align 8
  %6 = alloca i64, align 8
  %7 = alloca i64, align 8
  store ptr %0, ptr %5, align 8, !tbaa !57
  store i64 %1, ptr %6, align 8, !tbaa !6
  store i64 %2, ptr %7, align 8, !tbaa !6
  %8 = load i64, ptr %6, align 8, !tbaa !6
  %9 = icmp slt i64 %8, 0
  br i1 %9, label %10, label %13

10:                                               ; preds = %3
  %11 = load i64, ptr @rb_eArgError, align 8, !tbaa !6
  %12 = load i64, ptr %6, align 8, !tbaa !6
  call void (i64, ptr, ...) @rb_raise(i64 noundef %11, ptr noundef @.str.192, i64 noundef %12) #26
  unreachable

13:                                               ; preds = %3
  %14 = load i64, ptr %6, align 8, !tbaa !6
  %15 = icmp eq i64 %14, 0
  br i1 %15, label %16, label %17

16:                                               ; preds = %13
  store i64 0, ptr %4, align 8
  br label %118

17:                                               ; preds = %13
  br label %18

18:                                               ; preds = %44, %17
  %19 = load ptr, ptr %5, align 8, !tbaa !57
  %20 = getelementptr inbounds nuw %struct.gzfile, ptr %19, i32 0, i32 0
  %21 = getelementptr inbounds nuw %struct.zstream, ptr %20, i32 0, i32 0
  %22 = load i64, ptr %21, align 8, !tbaa !59
  %23 = and i64 %22, 4
  %24 = icmp ne i64 %23, 0
  br i1 %24, label %42, label %25

25:                                               ; preds = %18
  %26 = load ptr, ptr %5, align 8, !tbaa !57
  %27 = getelementptr inbounds nuw %struct.gzfile, ptr %26, i32 0, i32 0
  %28 = getelementptr inbounds nuw %struct.zstream, ptr %27, i32 0, i32 1
  %29 = load i64, ptr %28, align 8, !tbaa !60
  %30 = call zeroext i1 @RB_NIL_P(i64 noundef %29) #24
  br i1 %30, label %31, label %32

31:                                               ; preds = %25
  br label %38

32:                                               ; preds = %25
  %33 = load ptr, ptr %5, align 8, !tbaa !57
  %34 = getelementptr inbounds nuw %struct.gzfile, ptr %33, i32 0, i32 0
  %35 = getelementptr inbounds nuw %struct.zstream, ptr %34, i32 0, i32 1
  %36 = load i64, ptr %35, align 8, !tbaa !60
  %37 = call i64 @RSTRING_LEN(i64 noundef %36) #25
  br label %38

38:                                               ; preds = %32, %31
  %39 = phi i64 [ 0, %31 ], [ %37, %32 ]
  %40 = load i64, ptr %6, align 8, !tbaa !6
  %41 = icmp slt i64 %39, %40
  br label %42

42:                                               ; preds = %38, %18
  %43 = phi i1 [ false, %18 ], [ %41, %38 ]
  br i1 %43, label %44, label %48

44:                                               ; preds = %42
  %45 = load ptr, ptr %5, align 8, !tbaa !57
  %46 = load i64, ptr %7, align 8, !tbaa !6
  %47 = call i64 @gzfile_read_more(ptr noundef %45, i64 noundef %46)
  br label %18, !llvm.loop !151

48:                                               ; preds = %42
  %49 = load ptr, ptr %5, align 8, !tbaa !57
  %50 = getelementptr inbounds nuw %struct.gzfile, ptr %49, i32 0, i32 0
  %51 = getelementptr inbounds nuw %struct.zstream, ptr %50, i32 0, i32 0
  %52 = load i64, ptr %51, align 8, !tbaa !59
  %53 = and i64 %52, 4
  %54 = icmp ne i64 %53, 0
  br i1 %54, label %55, label %82

55:                                               ; preds = %48
  %56 = load ptr, ptr %5, align 8, !tbaa !57
  %57 = getelementptr inbounds nuw %struct.gzfile, ptr %56, i32 0, i32 0
  %58 = getelementptr inbounds nuw %struct.zstream, ptr %57, i32 0, i32 1
  %59 = load i64, ptr %58, align 8, !tbaa !60
  %60 = call zeroext i1 @RB_NIL_P(i64 noundef %59) #24
  br i1 %60, label %61, label %62

61:                                               ; preds = %55
  br label %68

62:                                               ; preds = %55
  %63 = load ptr, ptr %5, align 8, !tbaa !57
  %64 = getelementptr inbounds nuw %struct.gzfile, ptr %63, i32 0, i32 0
  %65 = getelementptr inbounds nuw %struct.zstream, ptr %64, i32 0, i32 1
  %66 = load i64, ptr %65, align 8, !tbaa !60
  %67 = call i64 @RSTRING_LEN(i64 noundef %66) #25
  br label %68

68:                                               ; preds = %62, %61
  %69 = phi i64 [ 0, %61 ], [ %67, %62 ]
  %70 = icmp eq i64 %69, 0
  br i1 %70, label %71, label %82

71:                                               ; preds = %68
  %72 = load ptr, ptr %5, align 8, !tbaa !57
  %73 = getelementptr inbounds nuw %struct.gzfile, ptr %72, i32 0, i32 0
  %74 = getelementptr inbounds nuw %struct.zstream, ptr %73, i32 0, i32 0
  %75 = load i64, ptr %74, align 8, !tbaa !59
  %76 = and i64 %75, 512
  %77 = icmp ne i64 %76, 0
  br i1 %77, label %81, label %78

78:                                               ; preds = %71
  %79 = load ptr, ptr %5, align 8, !tbaa !57
  %80 = load i64, ptr %7, align 8, !tbaa !6
  call void @gzfile_check_footer(ptr noundef %79, i64 noundef %80)
  br label %81

81:                                               ; preds = %78, %71
  store i64 -1, ptr %4, align 8
  br label %118

82:                                               ; preds = %68, %48
  %83 = load i64, ptr %6, align 8, !tbaa !6
  %84 = load ptr, ptr %5, align 8, !tbaa !57
  %85 = getelementptr inbounds nuw %struct.gzfile, ptr %84, i32 0, i32 0
  %86 = getelementptr inbounds nuw %struct.zstream, ptr %85, i32 0, i32 1
  %87 = load i64, ptr %86, align 8, !tbaa !60
  %88 = call zeroext i1 @RB_NIL_P(i64 noundef %87) #24
  br i1 %88, label %89, label %90

89:                                               ; preds = %82
  br label %96

90:                                               ; preds = %82
  %91 = load ptr, ptr %5, align 8, !tbaa !57
  %92 = getelementptr inbounds nuw %struct.gzfile, ptr %91, i32 0, i32 0
  %93 = getelementptr inbounds nuw %struct.zstream, ptr %92, i32 0, i32 1
  %94 = load i64, ptr %93, align 8, !tbaa !60
  %95 = call i64 @RSTRING_LEN(i64 noundef %94) #25
  br label %96

96:                                               ; preds = %90, %89
  %97 = phi i64 [ 0, %89 ], [ %95, %90 ]
  %98 = icmp slt i64 %83, %97
  br i1 %98, label %99, label %101

99:                                               ; preds = %96
  %100 = load i64, ptr %6, align 8, !tbaa !6
  br label %116

101:                                              ; preds = %96
  %102 = load ptr, ptr %5, align 8, !tbaa !57
  %103 = getelementptr inbounds nuw %struct.gzfile, ptr %102, i32 0, i32 0
  %104 = getelementptr inbounds nuw %struct.zstream, ptr %103, i32 0, i32 1
  %105 = load i64, ptr %104, align 8, !tbaa !60
  %106 = call zeroext i1 @RB_NIL_P(i64 noundef %105) #24
  br i1 %106, label %107, label %108

107:                                              ; preds = %101
  br label %114

108:                                              ; preds = %101
  %109 = load ptr, ptr %5, align 8, !tbaa !57
  %110 = getelementptr inbounds nuw %struct.gzfile, ptr %109, i32 0, i32 0
  %111 = getelementptr inbounds nuw %struct.zstream, ptr %110, i32 0, i32 1
  %112 = load i64, ptr %111, align 8, !tbaa !60
  %113 = call i64 @RSTRING_LEN(i64 noundef %112) #25
  br label %114

114:                                              ; preds = %108, %107
  %115 = phi i64 [ 0, %107 ], [ %113, %108 ]
  br label %116

116:                                              ; preds = %114, %99
  %117 = phi i64 [ %100, %99 ], [ %115, %114 ]
  store i64 %117, ptr %4, align 8
  br label %118

118:                                              ; preds = %116, %81, %16
  %119 = load i64, ptr %4, align 8
  ret i64 %119
}

; Function Attrs: inlinehint nounwind sspstrong uwtable
define internal ptr @rb_enc_left_char_head(ptr noundef %0, ptr noundef %1, ptr noundef %2, ptr noundef %3) #3 {
  %5 = alloca ptr, align 8
  %6 = alloca ptr, align 8
  %7 = alloca ptr, align 8
  %8 = alloca ptr, align 8
  %9 = alloca ptr, align 8
  %10 = alloca ptr, align 8
  %11 = alloca ptr, align 8
  %12 = alloca ptr, align 8
  store ptr %0, ptr %5, align 8, !tbaa !19
  store ptr %1, ptr %6, align 8, !tbaa !19
  store ptr %2, ptr %7, align 8, !tbaa !19
  store ptr %3, ptr %8, align 8, !tbaa !154
  call void @llvm.lifetime.start.p0(i64 8, ptr %9) #23
  %13 = load ptr, ptr %5, align 8, !tbaa !19
  store ptr %13, ptr %9, align 8, !tbaa !19
  call void @llvm.lifetime.start.p0(i64 8, ptr %10) #23
  %14 = load ptr, ptr %6, align 8, !tbaa !19
  store ptr %14, ptr %10, align 8, !tbaa !19
  call void @llvm.lifetime.start.p0(i64 8, ptr %11) #23
  %15 = load ptr, ptr %7, align 8, !tbaa !19
  store ptr %15, ptr %11, align 8, !tbaa !19
  call void @llvm.lifetime.start.p0(i64 8, ptr %12) #23
  %16 = load ptr, ptr %8, align 8, !tbaa !154
  %17 = load ptr, ptr %9, align 8, !tbaa !19
  %18 = load ptr, ptr %10, align 8, !tbaa !19
  %19 = load ptr, ptr %11, align 8, !tbaa !19
  %20 = call ptr @onigenc_get_left_adjust_char_head(ptr noundef %16, ptr noundef %17, ptr noundef %18, ptr noundef %19)
  store ptr %20, ptr %12, align 8, !tbaa !19
  %21 = load ptr, ptr %12, align 8, !tbaa !19
  call void @llvm.lifetime.end.p0(i64 8, ptr %12) #23
  call void @llvm.lifetime.end.p0(i64 8, ptr %11) #23
  call void @llvm.lifetime.end.p0(i64 8, ptr %10) #23
  call void @llvm.lifetime.end.p0(i64 8, ptr %9) #23
  ret ptr %21
}

; Function Attrs: inlinehint nounwind sspstrong willreturn memory(read) uwtable
define internal i64 @RSTRING_LEN(i64 noundef %0) #6 {
  %2 = alloca i64, align 8
  store i64 %0, ptr %2, align 8, !tbaa !6
  %3 = load i64, ptr %2, align 8, !tbaa !6
  %4 = inttoptr i64 %3 to ptr
  %5 = getelementptr inbounds nuw %struct.RString, ptr %4, i32 0, i32 1
  %6 = load i64, ptr %5, align 8, !tbaa !88
  ret i64 %6
}

; Function Attrs: inlinehint nounwind sspstrong willreturn memory(none) uwtable
define internal zeroext i1 @RB_NIL_P(i64 noundef %0) #5 {
  %2 = alloca i64, align 8
  store i64 %0, ptr %2, align 8, !tbaa !6
  %3 = load i64, ptr %2, align 8, !tbaa !6
  %4 = icmp eq i64 %3, 4
  ret i1 %4
}

; Function Attrs: inlinehint nounwind sspstrong uwtable
define internal ptr @RSTRING_PTR(i64 noundef %0) #3 {
  %2 = alloca i64, align 8
  %3 = alloca ptr, align 8
  %4 = alloca %struct.RString, align 8
  store i64 %0, ptr %2, align 8, !tbaa !6
  call void @llvm.lifetime.start.p0(i64 8, ptr %3) #23
  %5 = load i64, ptr %2, align 8, !tbaa !6
  call void @rbimpl_rstring_getmem(ptr dead_on_unwind writable sret(%struct.RString) align 8 %4, i64 noundef %5) #28
  %6 = getelementptr inbounds nuw %struct.RString, ptr %4, i32 0, i32 2
  %7 = getelementptr inbounds nuw %struct.anon, ptr %6, i32 0, i32 0
  %8 = load ptr, ptr %7, align 8, !tbaa !68
  store ptr %8, ptr %3, align 8, !tbaa !19
  %9 = load ptr, ptr %3, align 8, !tbaa !19
  call void @llvm.lifetime.end.p0(i64 8, ptr %3) #23
  ret ptr %9
}

; Function Attrs: nounwind sspstrong uwtable
define internal i64 @gzreader_charboundary(ptr noundef %0, i64 noundef %1) #0 {
  %3 = alloca i64, align 8
  %4 = alloca ptr, align 8
  %5 = alloca i64, align 8
  %6 = alloca ptr, align 8
  %7 = alloca ptr, align 8
  %8 = alloca ptr, align 8
  %9 = alloca i64, align 8
  %10 = alloca i32, align 4
  %11 = alloca i32, align 4
  store ptr %0, ptr %4, align 8, !tbaa !57
  store i64 %1, ptr %5, align 8, !tbaa !6
  call void @llvm.lifetime.start.p0(i64 8, ptr %6) #23
  %12 = load ptr, ptr %4, align 8, !tbaa !57
  %13 = getelementptr inbounds nuw %struct.gzfile, ptr %12, i32 0, i32 0
  %14 = getelementptr inbounds nuw %struct.zstream, ptr %13, i32 0, i32 1
  %15 = load i64, ptr %14, align 8, !tbaa !60
  %16 = call ptr @RSTRING_PTR(i64 noundef %15)
  store ptr %16, ptr %6, align 8, !tbaa !19
  call void @llvm.lifetime.start.p0(i64 8, ptr %7) #23
  %17 = load ptr, ptr %6, align 8, !tbaa !19
  %18 = load ptr, ptr %4, align 8, !tbaa !57
  %19 = getelementptr inbounds nuw %struct.gzfile, ptr %18, i32 0, i32 0
  %20 = getelementptr inbounds nuw %struct.zstream, ptr %19, i32 0, i32 1
  %21 = load i64, ptr %20, align 8, !tbaa !60
  %22 = call zeroext i1 @RB_NIL_P(i64 noundef %21) #24
  br i1 %22, label %23, label %24

23:                                               ; preds = %2
  br label %30

24:                                               ; preds = %2
  %25 = load ptr, ptr %4, align 8, !tbaa !57
  %26 = getelementptr inbounds nuw %struct.gzfile, ptr %25, i32 0, i32 0
  %27 = getelementptr inbounds nuw %struct.zstream, ptr %26, i32 0, i32 1
  %28 = load i64, ptr %27, align 8, !tbaa !60
  %29 = call i64 @RSTRING_LEN(i64 noundef %28) #25
  br label %30

30:                                               ; preds = %24, %23
  %31 = phi i64 [ 0, %23 ], [ %29, %24 ]
  %32 = getelementptr inbounds i8, ptr %17, i64 %31
  store ptr %32, ptr %7, align 8, !tbaa !19
  call void @llvm.lifetime.start.p0(i64 8, ptr %8) #23
  %33 = load ptr, ptr %6, align 8, !tbaa !19
  %34 = load ptr, ptr %6, align 8, !tbaa !19
  %35 = load i64, ptr %5, align 8, !tbaa !6
  %36 = getelementptr inbounds i8, ptr %34, i64 %35
  %37 = getelementptr inbounds i8, ptr %36, i64 -1
  %38 = load ptr, ptr %7, align 8, !tbaa !19
  %39 = load ptr, ptr %4, align 8, !tbaa !57
  %40 = getelementptr inbounds nuw %struct.gzfile, ptr %39, i32 0, i32 12
  %41 = load ptr, ptr %40, align 8, !tbaa !75
  %42 = call ptr @rb_enc_left_char_head(ptr noundef %33, ptr noundef %37, ptr noundef %38, ptr noundef %41)
  store ptr %42, ptr %8, align 8, !tbaa !19
  call void @llvm.lifetime.start.p0(i64 8, ptr %9) #23
  %43 = load ptr, ptr %8, align 8, !tbaa !19
  %44 = load ptr, ptr %6, align 8, !tbaa !19
  %45 = ptrtoint ptr %43 to i64
  %46 = ptrtoint ptr %44 to i64
  %47 = sub i64 %45, %46
  store i64 %47, ptr %9, align 8, !tbaa !6
  %48 = load i64, ptr %9, align 8, !tbaa !6
  %49 = load i64, ptr %5, align 8, !tbaa !6
  %50 = icmp slt i64 %48, %49
  br i1 %50, label %51, label %85

51:                                               ; preds = %30
  call void @llvm.lifetime.start.p0(i64 4, ptr %10) #23
  %52 = load ptr, ptr %8, align 8, !tbaa !19
  %53 = load ptr, ptr %7, align 8, !tbaa !19
  %54 = load ptr, ptr %4, align 8, !tbaa !57
  %55 = getelementptr inbounds nuw %struct.gzfile, ptr %54, i32 0, i32 12
  %56 = load ptr, ptr %55, align 8, !tbaa !75
  %57 = call i32 @rb_enc_precise_mbclen(ptr noundef %52, ptr noundef %53, ptr noundef %56)
  store i32 %57, ptr %10, align 4, !tbaa !10
  %58 = load i32, ptr %10, align 4, !tbaa !10
  %59 = icmp slt i32 %58, -1
  br i1 %59, label %60, label %72

60:                                               ; preds = %51
  %61 = load ptr, ptr %4, align 8, !tbaa !57
  %62 = load i64, ptr %5, align 8, !tbaa !6
  %63 = load i32, ptr %10, align 4, !tbaa !10
  %64 = sub nsw i32 -1, %63
  %65 = sext i32 %64 to i64
  %66 = add nsw i64 %62, %65
  %67 = call i64 @gzfile_fill(ptr noundef %61, i64 noundef %66, i64 noundef 4)
  store i64 %67, ptr %9, align 8, !tbaa !6
  %68 = icmp sgt i64 %67, 0
  br i1 %68, label %69, label %71

69:                                               ; preds = %60
  %70 = load i64, ptr %9, align 8, !tbaa !6
  store i64 %70, ptr %3, align 8
  store i32 1, ptr %11, align 4
  br label %82

71:                                               ; preds = %60
  br label %81

72:                                               ; preds = %51
  %73 = load i32, ptr %10, align 4, !tbaa !10
  %74 = icmp slt i32 0, %73
  br i1 %74, label %75, label %80

75:                                               ; preds = %72
  %76 = load i64, ptr %9, align 8, !tbaa !6
  %77 = load i32, ptr %10, align 4, !tbaa !10
  %78 = sext i32 %77 to i64
  %79 = add nsw i64 %76, %78
  store i64 %79, ptr %3, align 8
  store i32 1, ptr %11, align 4
  br label %82

80:                                               ; preds = %72
  br label %81

81:                                               ; preds = %80, %71
  store i32 0, ptr %11, align 4
  br label %82

82:                                               ; preds = %81, %75, %69
  call void @llvm.lifetime.end.p0(i64 4, ptr %10) #23
  %83 = load i32, ptr %11, align 4
  switch i32 %83, label %87 [
    i32 0, label %84
  ]

84:                                               ; preds = %82
  br label %85

85:                                               ; preds = %84, %30
  %86 = load i64, ptr %5, align 8, !tbaa !6
  store i64 %86, ptr %3, align 8
  store i32 1, ptr %11, align 4
  br label %87

87:                                               ; preds = %85, %82
  call void @llvm.lifetime.end.p0(i64 8, ptr %9) #23
  call void @llvm.lifetime.end.p0(i64 8, ptr %8) #23
  call void @llvm.lifetime.end.p0(i64 8, ptr %7) #23
  call void @llvm.lifetime.end.p0(i64 8, ptr %6) #23
  %88 = load i64, ptr %3, align 8
  ret i64 %88
}