; Function Attrs: nounwind sspstrong uwtable
define internal fastcc i64 @gzreader_charboundary(ptr noundef %0, i64 noundef %1) unnamed_addr #0 {
  %3 = getelementptr inbounds nuw i8, ptr %0, i64 8
  %4 = load i64, ptr %3, align 8, !tbaa !132
  %5 = inttoptr i64 %4 to ptr
  %6 = load i64, ptr %5, align 8, !tbaa !16, !noalias !344
  %7 = and i64 %6, 8192
  %.not.i.i = icmp eq i64 %7, 0
  %8 = getelementptr inbounds nuw i8, ptr %5, i64 24
  br i1 %.not.i.i, label %RSTRING_PTR.exit, label %9

9:                                                ; preds = %2
  %.sroa.2.0.copyload.i = load ptr, ptr %8, align 8
  br label %RSTRING_PTR.exit

RSTRING_PTR.exit:                                 ; preds = %2, %9
  %.sroa.2.0.i = phi ptr [ %.sroa.2.0.copyload.i, %9 ], [ %8, %2 ]
  %10 = icmp eq i64 %4, 4
  br i1 %10, label %14, label %11

11:                                               ; preds = %RSTRING_PTR.exit
  %12 = getelementptr inbounds nuw i8, ptr %5, i64 16
  %13 = load i64, ptr %12, align 8, !tbaa !21
  br label %14

14:                                               ; preds = %RSTRING_PTR.exit, %11
  %15 = phi i64 [ %13, %11 ], [ 0, %RSTRING_PTR.exit ]
  %16 = getelementptr inbounds i8, ptr %.sroa.2.0.i, i64 %15
  %17 = getelementptr inbounds i8, ptr %.sroa.2.0.i, i64 %1
  %18 = getelementptr inbounds i8, ptr %17, i64 -1
  %19 = getelementptr inbounds nuw i8, ptr %0, i64 224
  %20 = load ptr, ptr %19, align 8, !tbaa !141
  %21 = tail call ptr @onigenc_get_left_adjust_char_head(ptr noundef %20, ptr noundef %.sroa.2.0.i, ptr noundef nonnull %18, ptr noundef %16) #18
  %22 = ptrtoint ptr %21 to i64
  %23 = ptrtoint ptr %.sroa.2.0.i to i64
  %24 = sub i64 %22, %23
  %25 = icmp slt i64 %24, %1
  br i1 %25, label %26, label %gzfile_fill.exit.thread

26:                                               ; preds = %14
  %27 = load ptr, ptr %19, align 8, !tbaa !141
  %28 = tail call i32 @rb_enc_precise_mbclen(ptr noundef %21, ptr noundef nonnull %16, ptr noundef %27) #18
  %29 = icmp slt i32 %28, -1
  br i1 %29, label %30, label %61

30:                                               ; preds = %26
  %31 = xor i32 %28, -1
  %32 = zext nneg i32 %31 to i64
  %33 = add nsw i64 %1, %32
  %34 = icmp slt i64 %33, 0
  br i1 %34, label %35, label %37

35:                                               ; preds = %30
  %36 = load i64, ptr @rb_eArgError, align 8, !tbaa !6
  tail call void (i64, ptr, ...) @rb_raise(i64 noundef %36, ptr noundef nonnull @.str.192, i64 noundef %33) #19
  unreachable

37:                                               ; preds = %30
  %38 = icmp eq i64 %33, 0
  br i1 %38, label %gzfile_fill.exit.thread, label %.preheader.i

.preheader.i:                                     ; preds = %37
  %39 = load i64, ptr %0, align 8, !tbaa !113
  %40 = and i64 %39, 4
  %.not28.i = icmp eq i64 %40, 0
  br i1 %.not28.i, label %.lr.ph.i, label %.critedge.i

.lr.ph.i:                                         ; preds = %.preheader.i, %47
  %41 = load i64, ptr %3, align 8, !tbaa !132
  %42 = icmp eq i64 %41, 4
  br i1 %42, label %47, label %.thread

.thread:                                          ; preds = %.lr.ph.i
  %43 = inttoptr i64 %41 to ptr
  %44 = getelementptr inbounds nuw i8, ptr %43, i64 16
  %45 = load i64, ptr %44, align 8, !tbaa !21
  %46 = icmp slt i64 %45, %33
  br i1 %46, label %47, label %gzfile_fill.exit

47:                                               ; preds = %.lr.ph.i, %.thread
  tail call fastcc void @gzfile_read_more(ptr noundef nonnull %0, i64 noundef 4)
  %48 = load i64, ptr %0, align 8, !tbaa !113
  %49 = and i64 %48, 4
  %.not.i = icmp eq i64 %49, 0
  br i1 %.not.i, label %.lr.ph.i, label %.critedge.i, !llvm.loop !299

.critedge.i:                                      ; preds = %47, %.preheader.i
  %.lcssa.i = phi i64 [ %39, %.preheader.i ], [ %48, %47 ]
  %50 = load i64, ptr %3, align 8, !tbaa !132
  %51 = icmp eq i64 %50, 4
  br i1 %51, label %.critedge25.i, label %52

52:                                               ; preds = %.critedge.i
  %53 = inttoptr i64 %50 to ptr
  %54 = getelementptr inbounds nuw i8, ptr %53, i64 16
  %55 = load i64, ptr %54, align 8, !tbaa !21
  %56 = icmp eq i64 %55, 0
  br i1 %56, label %.critedge25.i, label %gzfile_fill.exit

.critedge25.i:                                    ; preds = %52, %.critedge.i
  %57 = and i64 %.lcssa.i, 512
  %.not23.i = icmp eq i64 %57, 0
  br i1 %.not23.i, label %58, label %gzfile_fill.exit.thread

58:                                               ; preds = %.critedge25.i
  tail call fastcc void @gzfile_check_footer(ptr noundef nonnull %0, i64 noundef 4)
  br label %gzfile_fill.exit.thread

gzfile_fill.exit:                                 ; preds = %.thread, %52
  %59 = phi i64 [ %55, %52 ], [ %45, %.thread ]
  %spec.select.i = tail call i64 @llvm.smin.i64(i64 %33, i64 %59)
  %60 = icmp sgt i64 %59, 0
  %spec.select = select i1 %60, i64 %spec.select.i, i64 %1
  br label %gzfile_fill.exit.thread

61:                                               ; preds = %26
  %62 = icmp sgt i32 %28, 0
  br i1 %62, label %63, label %gzfile_fill.exit.thread

63:                                               ; preds = %61
  %64 = zext nneg i32 %28 to i64
  %65 = add nsw i64 %24, %64
  br label %gzfile_fill.exit.thread

gzfile_fill.exit.thread:                          ; preds = %gzfile_fill.exit, %63, %.critedge25.i, %58, %37, %14, %61
  %.1 = phi i64 [ %1, %61 ], [ %1, %14 ], [ %1, %37 ], [ %1, %58 ], [ %1, %.critedge25.i ], [ %65, %63 ], [ %spec.select, %gzfile_fill.exit ]
  ret i64 %.1
}